target datalayout = "e-m:e-p270:32:32-p271:32:32-p272:64:64-i64:64-i128:128-f80:128-n8:16:32:64-S128"
target triple = "x86_64-pc-linux-gnu"

%struct.SDL_HashTable = type { ptr, ptr, ptr, ptr, ptr, ptr, i32, i32, i32 }
%struct.SDL_HashItem = type { ptr, ptr, i32, i32 }

; Function Attrs: nounwind uwtable
define internal void @destroy_all(ptr noundef %0) #0 {
  %2 = alloca ptr, align 8
  %3 = alloca ptr, align 8
  %4 = alloca ptr, align 8
  %5 = alloca ptr, align 8
  %6 = alloca ptr, align 8
  store ptr %0, ptr %2, align 8
  call void @llvm.lifetime.start.p0(i64 8, ptr %3) #9
  %7 = load ptr, ptr %2, align 8
  %8 = getelementptr inbounds nuw %struct.SDL_HashTable, ptr %7, i32 0, i32 4
  %9 = load ptr, ptr %8, align 8
  store ptr %9, ptr %3, align 8
  %10 = load ptr, ptr %3, align 8
  %11 = icmp ne ptr %10, null
  br i1 %11, label %12, label %58

12:                                               ; preds = %1
  call void @llvm.lifetime.start.p0(i64 8, ptr %4) #9
  %13 = load ptr, ptr %2, align 8
  %14 = getelementptr inbounds nuw %struct.SDL_HashTable, ptr %13, i32 0, i32 5
  %15 = load ptr, ptr %14, align 8
  store ptr %15, ptr %4, align 8
  call void @llvm.lifetime.start.p0(i64 8, ptr %5) #9
  %16 = load ptr, ptr %2, align 8
  %17 = getelementptr inbounds nuw %struct.SDL_HashTable, ptr %16, i32 0, i32 1
  %18 = load ptr, ptr %17, align 8
  %19 = load ptr, ptr %2, align 8
  %20 = getelementptr inbounds nuw %struct.SDL_HashTable, ptr %19, i32 0, i32 6
  %21 = load i32, ptr %20, align 8
  %22 = add i32 %21, 1
  %23 = zext i32 %22 to i64
  %24 = getelementptr inbounds nuw %struct.SDL_HashItem, ptr %18, i64 %23
  store ptr %24, ptr %5, align 8
  call void @llvm.lifetime.start.p0(i64 8, ptr %6) #9
  %25 = load ptr, ptr %2, align 8
  %26 = getelementptr inbounds nuw %struct.SDL_HashTable, ptr %25, i32 0, i32 1
  %27 = load ptr, ptr %26, align 8
  store ptr %27, ptr %6, align 8
  br label %28

28:                                               ; preds = %54, %12
  %29 = load ptr, ptr %6, align 8
  %30 = load ptr, ptr %5, align 8
  %31 = icmp ult ptr %29, %30
  br i1 %31, label %33, label %32

32:                                               ; preds = %28
  call void @llvm.lifetime.end.p0(i64 8, ptr %6) #9
  br label %57

33:                                               ; preds = %28
  %34 = load ptr, ptr %6, align 8
  %35 = getelementptr inbounds nuw %struct.SDL_HashItem, ptr %34, i32 0, i32 3
  %36 = load i32, ptr %35, align 4
  %37 = lshr i32 %36, 31
  %38 = icmp ne i32 %37, 0
  br i1 %38, label %39, label %53

39:                                               ; preds = %33
  %40 = load ptr, ptr %6, align 8
  %41 = getelementptr inbounds nuw %struct.SDL_HashItem, ptr %40, i32 0, i32 3
  %42 = load i32, ptr %41, align 4
  %43 = and i32 %42, 2147483647
  %44 = or i32 %43, 0
  store i32 %44, ptr %41, align 4
  %45 = load ptr, ptr %3, align 8
  %46 = load ptr, ptr %4, align 8
  %47 = load ptr, ptr %6, align 8
  %48 = getelementptr inbounds nuw %struct.SDL_HashItem, ptr %47, i32 0, i32 0
  %49 = load ptr, ptr %48, align 8
  %50 = load ptr, ptr %6, align 8
  %51 = getelementptr inbounds nuw %struct.SDL_HashItem, ptr %50, i32 0, i32 1
  %52 = load ptr, ptr %51, align 8
  call void %45(ptr noundef %46, ptr noundef %49, ptr noundef %52)
  br label %53

53:                                               ; preds = %39, %33
  br label %54

54:                                               ; preds = %53
  %55 = load ptr, ptr %6, align 8
  %56 = getelementptr inbounds nuw %struct.SDL_HashItem, ptr %55, i32 1
  store ptr %56, ptr %6, align 8
  br label %28, !llvm.loop !7

57:                                               ; preds = %32
  call void @llvm.lifetime.end.p0(i64 8, ptr %5) #9
  call void @llvm.lifetime.end.p0(i64 8, ptr %4) #9
  br label %58

58:                                               ; preds = %57, %1
  call void @llvm.lifetime.end.p0(i64 8, ptr %3) #9
  ret void
}

; Function Attrs: nounwind uwtable
define hidden void @SDL_DestroyHashTable(ptr noundef %0) #0 {
  %2 = alloca ptr, align 8
  store ptr %0, ptr %2, align 8
  %3 = load ptr, ptr %2, align 8
  %4 = icmp ne ptr %3, null
  br i1 %4, label %5, label %20

5:                                                ; preds = %1
  %6 = load ptr, ptr %2, align 8
  call void @destroy_all(ptr noundef %6)
  %7 = load ptr, ptr %2, align 8
  %8 = getelementptr inbounds nuw %struct.SDL_HashTable, ptr %7, i32 0, i32 0
  %9 = load ptr, ptr %8, align 8
  %10 = icmp ne ptr %9, null
  br i1 %10, label %11, label %15

11:                                               ; preds = %5
  %12 = load ptr, ptr %2, align 8
  %13 = getelementptr inbounds nuw %struct.SDL_HashTable, ptr %12, i32 0, i32 0
  %14 = load ptr, ptr %13, align 8
  call void @SDL_DestroyRWLock_REAL(ptr noundef %14)
  br label %15

15:                                               ; preds = %11, %5
  %16 = load ptr, ptr %2, align 8
  %17 = getelementptr inbounds nuw %struct.SDL_HashTable, ptr %16, i32 0, i32 1
  %18 = load ptr, ptr %17, align 8
  call void @SDL_free_REAL(ptr noundef %18)
  %19 = load ptr, ptr %2, align 8
  call void @SDL_free_REAL(ptr noundef %19)
  br label %20

20:                                               ; preds = %15, %1
  ret void
}