; Function Attrs: nounwind uwtable
define hidden void @SDL_DestroyHashTable(ptr noundef %0) local_unnamed_addr #0 {
  %.not = icmp eq ptr %0, null
  br i1 %.not, label %30, label %2

2:                                                ; preds = %1
  %3 = getelementptr inbounds nuw i8, ptr %0, i64 32
  %4 = load ptr, ptr %3, align 8
  %.not.i = icmp eq ptr %4, null
  br i1 %.not.i, label %destroy_all.exit, label %5

5:                                                ; preds = %2
  %6 = getelementptr inbounds nuw i8, ptr %0, i64 40
  %7 = load ptr, ptr %6, align 8
  %8 = getelementptr inbounds nuw i8, ptr %0, i64 8
  %9 = load ptr, ptr %8, align 8
  %10 = getelementptr inbounds nuw i8, ptr %0, i64 48
  %11 = load i32, ptr %10, align 8
  %12 = add i32 %11, 1
  %13 = zext i32 %12 to i64
  %14 = getelementptr inbounds nuw %struct.SDL_HashItem, ptr %9, i64 %13
  %.not18.i = icmp eq i32 %12, 0
  br i1 %.not18.i, label %destroy_all.exit, label %.lr.ph.i

.lr.ph.i:                                         ; preds = %5, %22
  %.017.i = phi ptr [ %23, %22 ], [ %9, %5 ]
  %15 = getelementptr inbounds nuw i8, ptr %.017.i, i64 20
  %16 = load i32, ptr %15, align 4
  %.not16.i = icmp sgt i32 %16, -1
  br i1 %.not16.i, label %22, label %17

17:                                               ; preds = %.lr.ph.i
  %18 = and i32 %16, 2147483647
  store i32 %18, ptr %15, align 4
  %19 = load ptr, ptr %.017.i, align 8
  %20 = getelementptr inbounds nuw i8, ptr %.017.i, i64 8
  %21 = load ptr, ptr %20, align 8
  tail call void %4(ptr noundef %7, ptr noundef %19, ptr noundef %21) #10
  br label %22

22:                                               ; preds = %17, %.lr.ph.i
  %23 = getelementptr inbounds nuw i8, ptr %.017.i, i64 24
  %24 = icmp ult ptr %23, %14
  br i1 %24, label %.lr.ph.i, label %destroy_all.exit, !llvm.loop !3

destroy_all.exit:                                 ; preds = %22, %2, %5
  %25 = load ptr, ptr %0, align 8
  %.not7 = icmp eq ptr %25, null
  br i1 %.not7, label %27, label %26

26:                                               ; preds = %destroy_all.exit
  tail call void @SDL_DestroyRWLock_REAL(ptr noundef nonnull %25) #10
  br label %27

27:                                               ; preds = %26, %destroy_all.exit
  %28 = getelementptr inbounds nuw i8, ptr %0, i64 8
  %29 = load ptr, ptr %28, align 8
  tail call void @SDL_free_REAL(ptr noundef %29) #10
  tail call void @SDL_free_REAL(ptr noundef nonnull %0) #10
  br label %30

30:                                               ; preds = %27, %1
  ret void
}